; ModuleID = '4/666.c'
source_filename = "4/666.c"
target datalayout = "e-m:e-p270:32:32-p271:32:32-p272:64:64-i64:64-f80:128-n8:16:32:64-S128"
target triple = "x86_64-pc-linux-gnu"

@.str = private unnamed_addr constant [5 x i8] c"%d%d\00", align 1
@.str.1 = private unnamed_addr constant [3 x i8] c"%d\00", align 1
@.str.2 = private unnamed_addr constant [4 x i8] c"%d\0A\00", align 1

; Function Attrs: noinline nounwind uwtable
define dso_local i32 @main() #0 {
  %1 = alloca i32, align 4
  %2 = alloca i32, align 4
  %3 = alloca i32, align 4
  %4 = alloca i32, align 4
  %5 = alloca i32, align 4
  %6 = alloca i32, align 4
  %7 = alloca i32, align 4
  %8 = alloca i32, align 4
  %9 = alloca i32, align 4
  %10 = alloca i32, align 4
  %11 = alloca i32, align 4
  %12 = alloca i32, align 4
  %13 = alloca i32, align 4
  %14 = alloca i32, align 4
  %15 = alloca i32, align 4
  %16 = alloca i32, align 4
  %17 = alloca [500 x [500 x i32]], align 16
  store i32 0, i32* %1, align 4
  %18 = call i32 (i8*, ...) @__isoc99_scanf(i8* getelementptr inbounds ([5 x i8], [5 x i8]* @.str, i64 0, i64 0), i32* %16, i32* %4)
  store i32 0, i32* %10, align 4
  store i32 1, i32* %2, align 4
  br label %19

19:                                               ; preds = %40, %0
  %20 = load i32, i32* %2, align 4
  %21 = load i32, i32* %16, align 4
  %22 = icmp sle i32 %20, %21
  br i1 %22, label %23, label %43

23:                                               ; preds = %19
  store i32 1, i32* %3, align 4
  br label %24

24:                                               ; preds = %36, %23
  %25 = load i32, i32* %3, align 4
  %26 = load i32, i32* %4, align 4
  %27 = icmp sle i32 %25, %26
  br i1 %27, label %28, label %39

28:                                               ; preds = %24
  %29 = load i32, i32* %2, align 4
  %30 = sext i32 %29 to i64
  %31 = getelementptr inbounds [500 x [500 x i32]], [500 x [500 x i32]]* %17, i64 0, i64 %30
  %32 = load i32, i32* %3, align 4
  %33 = sext i32 %32 to i64
  %34 = getelementptr inbounds [500 x i32], [500 x i32]* %31, i64 0, i64 %33
  %35 = call i32 (i8*, ...) @__isoc99_scanf(i8* getelementptr inbounds ([3 x i8], [3 x i8]* @.str.1, i64 0, i64 0), i32* %34)
  br label %36

36:                                               ; preds = %28
  %37 = load i32, i32* %3, align 4
  %38 = add nsw i32 %37, 1
  store i32 %38, i32* %3, align 4
  br label %24

39:                                               ; preds = %24
  br label %40

40:                                               ; preds = %39
  %41 = load i32, i32* %2, align 4
  %42 = add nsw i32 %41, 1
  store i32 %42, i32* %2, align 4
  br label %19

43:                                               ; preds = %19
  store i32 2, i32* %15, align 4
  br label %44

44:                                               ; preds = %81, %43
  %45 = load i32, i32* %15, align 4
  %46 = load i32, i32* %16, align 4
  %47 = load i32, i32* %4, align 4
  %48 = add nsw i32 %46, %47
  %49 = icmp sle i32 %45, %48
  br i1 %49, label %50, label %84

50:                                               ; preds = %44
  store i32 1, i32* %12, align 4
  br label %51

51:                                               ; preds = %77, %50
  %52 = load i32, i32* %12, align 4
  %53 = load i32, i32* %15, align 4
  %54 = icmp slt i32 %52, %53
  br i1 %54, label %55, label %80

55:                                               ; preds = %51
  %56 = load i32, i32* %15, align 4
  %57 = load i32, i32* %12, align 4
  %58 = sub nsw i32 %56, %57
  %59 = load i32, i32* %4, align 4
  %60 = icmp sle i32 %58, %59
  br i1 %60, label %61, label %76

61:                                               ; preds = %55
  %62 = load i32, i32* %12, align 4
  %63 = load i32, i32* %16, align 4
  %64 = icmp sle i32 %62, %63
  br i1 %64, label %65, label %76

65:                                               ; preds = %61
  %66 = load i32, i32* %12, align 4
  %67 = sext i32 %66 to i64
  %68 = getelementptr inbounds [500 x [500 x i32]], [500 x [500 x i32]]* %17, i64 0, i64 %67
  %69 = load i32, i32* %15, align 4
  %70 = load i32, i32* %12, align 4
  %71 = sub nsw i32 %69, %70
  %72 = sext i32 %71 to i64
  %73 = getelementptr inbounds [500 x i32], [500 x i32]* %68, i64 0, i64 %72
  %74 = load i32, i32* %73, align 4
  %75 = call i32 (i8*, ...) @printf(i8* getelementptr inbounds ([4 x i8], [4 x i8]* @.str.2, i64 0, i64 0), i32 %74)
  br label %76

76:                                               ; preds = %65, %61, %55
  br label %77

77:                                               ; preds = %76
  %78 = load i32, i32* %12, align 4
  %79 = add nsw i32 %78, 1
  store i32 %79, i32* %12, align 4
  br label %51

80:                                               ; preds = %51
  br label %81

81:                                               ; preds = %80
  %82 = load i32, i32* %15, align 4
  %83 = add nsw i32 %82, 1
  store i32 %83, i32* %15, align 4
  br label %44

84:                                               ; preds = %44
  ret i32 0
}

declare dso_local i32 @__isoc99_scanf(i8*, ...) #1

declare dso_local i32 @printf(i8*, ...) #1


!llvm.module.flags = !{!0}
!llvm.ident = !{!1}

!0 = !{i32 1, !"wchar_size", i32 4}
!1 = !{!"clang version 10.0.0-4ubuntu1 "}
